target datalayout = "e-m:e-p270:32:32-p271:32:32-p272:64:64-i64:64-i128:128-f80:128-n8:16:32:64-S128"
target triple = "x86_64-pc-linux-gnu"

%struct.MOVTrack = type { i32, i32, i32, i32, i64, i64, i32, i64, i64, i64, i32, i32, i32, i32, i32, i32, i32, ptr, ptr, i32, i32, i32, ptr, ptr, ptr, i32, i32, i32, i32, i32, i64, i64, i64, i32, i64, i32, i32, ptr, i32, i64, i32, i64, i32, i32, %struct.HintSampleQueue, ptr, ptr, i64, i32, i32, i32, ptr, i32, %struct.anon, ptr, %struct.MOVMuxCencContext, [256 x i32], i32, i32, i32, %struct.PacketList, ptr, i32, i32, ptr }
%struct.HintSampleQueue = type { i32, i32, ptr }
%struct.anon = type { i32, i32, i32, i32, i32, i32, i32 }
%struct.MOVMuxCencContext = type { ptr, ptr, i64, i64, i32, i32, i16, i64, ptr, i64, ptr, i32, i32, ptr, %struct.CodedBitstreamFragment }
%struct.CodedBitstreamFragment = type { ptr, i64, i64, ptr, i32, i32, ptr }
%struct.PacketList = type { ptr, ptr }
%struct.eac3_info = type { ptr, i8, i8, i16, i8, i8, [1 x %struct.anon.0] }
%struct.anon.0 = type { i8, i8, i8, i8, i8, i8, i16 }
%struct.PutBitContext = type { i32, i32, ptr, ptr, ptr }

@.str.6 = private unnamed_addr constant [30 x i8] c"Assertion %s failed at %s:%d\0A\00", align 1
@.str.342 = private unnamed_addr constant [43 x i8] c"Internal error, put_bits buffer too small\0A\00", align 1
@.str.343 = private unnamed_addr constant [24 x i8] c"s->buf_ptr < s->buf_end\00", align 1
@.str.344 = private unnamed_addr constant [24 x i8] c"./libavcodec/put_bits.h\00", align 1
@.str.408 = private unnamed_addr constant [81 x i8] c"Cannot write moov atom before AC3 packets. Set the delay_moov flag to fix this.\0A\00", align 1
@.str.409 = private unnamed_addr constant [102 x i8] c"RealAudio AC-3/DolbyNet with bsid %d is not defined by the ISOBMFF specification in ETSI TS 102 366!\0A\00", align 1
@.str.410 = private unnamed_addr constant [49 x i8] c"No valid AC3 bit rate code for data rate of %d!\0A\00", align 1
@.str.411 = private unnamed_addr constant [5 x i8] c"dac3\00", align 1

; Function Attrs: alwaysinline nounwind willreturn memory(none) uwtable
define internal i32 @av_bswap32(i32 noundef %0) #5 {
  %2 = alloca i32, align 4
  store i32 %0, ptr %2, align 4, !tbaa !32
  %3 = load i32, ptr %2, align 4, !tbaa !32
  %4 = shl i32 %3, 8
  %5 = and i32 %4, 65280
  %6 = load i32, ptr %2, align 4, !tbaa !32
  %7 = lshr i32 %6, 8
  %8 = and i32 %7, 255
  %9 = or i32 %5, %8
  %10 = shl i32 %9, 16
  %11 = load i32, ptr %2, align 4, !tbaa !32
  %12 = lshr i32 %11, 16
  %13 = shl i32 %12, 8
  %14 = and i32 %13, 65280
  %15 = load i32, ptr %2, align 4, !tbaa !32
  %16 = lshr i32 %15, 16
  %17 = lshr i32 %16, 8
  %18 = and i32 %17, 255
  %19 = or i32 %14, %18
  %20 = or i32 %10, %19
  ret i32 %20
}

; Function Attrs: inlinehint nounwind uwtable
define internal void @put_bits_no_assert(ptr noundef %0, i32 noundef %1, i32 noundef %2) #8 {
  %4 = alloca ptr, align 8
  %5 = alloca i32, align 4
  %6 = alloca i32, align 4
  %7 = alloca i32, align 4
  %8 = alloca i32, align 4
  store ptr %0, ptr %4, align 8, !tbaa !488
  store i32 %1, ptr %5, align 4, !tbaa !32
  store i32 %2, ptr %6, align 4, !tbaa !32
  call void @llvm.lifetime.start.p0(i64 4, ptr %7) #14
  call void @llvm.lifetime.start.p0(i64 4, ptr %8) #14
  %9 = load ptr, ptr %4, align 8, !tbaa !488
  %10 = getelementptr inbounds nuw %struct.PutBitContext, ptr %9, i32 0, i32 0
  %11 = load i32, ptr %10, align 8, !tbaa !495
  store i32 %11, ptr %7, align 4, !tbaa !32
  %12 = load ptr, ptr %4, align 8, !tbaa !488
  %13 = getelementptr inbounds nuw %struct.PutBitContext, ptr %12, i32 0, i32 1
  %14 = load i32, ptr %13, align 4, !tbaa !494
  store i32 %14, ptr %8, align 4, !tbaa !32
  %15 = load i32, ptr %5, align 4, !tbaa !32
  %16 = load i32, ptr %8, align 4, !tbaa !32
  %17 = icmp slt i32 %15, %16
  br i1 %17, label %18, label %27

18:                                               ; preds = %3
  %19 = load i32, ptr %7, align 4, !tbaa !32
  %20 = load i32, ptr %5, align 4, !tbaa !32
  %21 = shl i32 %19, %20
  %22 = load i32, ptr %6, align 4, !tbaa !32
  %23 = or i32 %21, %22
  store i32 %23, ptr %7, align 4, !tbaa !32
  %24 = load i32, ptr %5, align 4, !tbaa !32
  %25 = load i32, ptr %8, align 4, !tbaa !32
  %26 = sub nsw i32 %25, %24
  store i32 %26, ptr %8, align 4, !tbaa !32
  br label %65

27:                                               ; preds = %3
  %28 = load i32, ptr %8, align 4, !tbaa !32
  %29 = load i32, ptr %7, align 4, !tbaa !32
  %30 = shl i32 %29, %28
  store i32 %30, ptr %7, align 4, !tbaa !32
  %31 = load i32, ptr %6, align 4, !tbaa !32
  %32 = load i32, ptr %5, align 4, !tbaa !32
  %33 = load i32, ptr %8, align 4, !tbaa !32
  %34 = sub nsw i32 %32, %33
  %35 = lshr i32 %31, %34
  %36 = load i32, ptr %7, align 4, !tbaa !32
  %37 = or i32 %36, %35
  store i32 %37, ptr %7, align 4, !tbaa !32
  %38 = load ptr, ptr %4, align 8, !tbaa !488
  %39 = getelementptr inbounds nuw %struct.PutBitContext, ptr %38, i32 0, i32 4
  %40 = load ptr, ptr %39, align 8, !tbaa !492
  %41 = load ptr, ptr %4, align 8, !tbaa !488
  %42 = getelementptr inbounds nuw %struct.PutBitContext, ptr %41, i32 0, i32 3
  %43 = load ptr, ptr %42, align 8, !tbaa !493
  %44 = ptrtoint ptr %40 to i64
  %45 = ptrtoint ptr %43 to i64
  %46 = sub i64 %44, %45
  %47 = icmp uge i64 %46, 4
  br i1 %47, label %48, label %58

48:                                               ; preds = %27
  %49 = load i32, ptr %7, align 4, !tbaa !32
  %50 = call i32 @av_bswap32(i32 noundef %49) #15
  %51 = load ptr, ptr %4, align 8, !tbaa !488
  %52 = getelementptr inbounds nuw %struct.PutBitContext, ptr %51, i32 0, i32 3
  %53 = load ptr, ptr %52, align 8, !tbaa !493
  store i32 %50, ptr %53, align 1, !tbaa !85
  %54 = load ptr, ptr %4, align 8, !tbaa !488
  %55 = getelementptr inbounds nuw %struct.PutBitContext, ptr %54, i32 0, i32 3
  %56 = load ptr, ptr %55, align 8, !tbaa !493
  %57 = getelementptr inbounds nuw i8, ptr %56, i64 4
  store ptr %57, ptr %55, align 8, !tbaa !493
  br label %59

58:                                               ; preds = %27
  call void (ptr, i32, ptr, ...) @av_log(ptr noundef null, i32 noundef 16, ptr noundef @.str.342)
  br label %59

59:                                               ; preds = %58, %48
  %60 = load i32, ptr %5, align 4, !tbaa !32
  %61 = sub nsw i32 32, %60
  %62 = load i32, ptr %8, align 4, !tbaa !32
  %63 = add nsw i32 %62, %61
  store i32 %63, ptr %8, align 4, !tbaa !32
  %64 = load i32, ptr %6, align 4, !tbaa !32
  store i32 %64, ptr %7, align 4, !tbaa !32
  br label %65

65:                                               ; preds = %59, %18
  %66 = load i32, ptr %7, align 4, !tbaa !32
  %67 = load ptr, ptr %4, align 8, !tbaa !488
  %68 = getelementptr inbounds nuw %struct.PutBitContext, ptr %67, i32 0, i32 0
  store i32 %66, ptr %68, align 8, !tbaa !495
  %69 = load i32, ptr %8, align 4, !tbaa !32
  %70 = load ptr, ptr %4, align 8, !tbaa !488
  %71 = getelementptr inbounds nuw %struct.PutBitContext, ptr %70, i32 0, i32 1
  store i32 %69, ptr %71, align 4, !tbaa !494
  call void @llvm.lifetime.end.p0(i64 4, ptr %8) #14
  call void @llvm.lifetime.end.p0(i64 4, ptr %7) #14
  ret void
}

; Function Attrs: inlinehint nounwind uwtable
define internal void @flush_put_bits(ptr noundef %0) #8 {
  %2 = alloca ptr, align 8
  store ptr %0, ptr %2, align 8, !tbaa !488
  %3 = load ptr, ptr %2, align 8, !tbaa !488
  %4 = getelementptr inbounds nuw %struct.PutBitContext, ptr %3, i32 0, i32 1
  %5 = load i32, ptr %4, align 4, !tbaa !494
  %6 = icmp slt i32 %5, 32
  br i1 %6, label %7, label %15

7:                                                ; preds = %1
  %8 = load ptr, ptr %2, align 8, !tbaa !488
  %9 = getelementptr inbounds nuw %struct.PutBitContext, ptr %8, i32 0, i32 1
  %10 = load i32, ptr %9, align 4, !tbaa !494
  %11 = load ptr, ptr %2, align 8, !tbaa !488
  %12 = getelementptr inbounds nuw %struct.PutBitContext, ptr %11, i32 0, i32 0
  %13 = load i32, ptr %12, align 8, !tbaa !495
  %14 = shl i32 %13, %10
  store i32 %14, ptr %12, align 8, !tbaa !495
  br label %15

15:                                               ; preds = %7, %1
  br label %16

16:                                               ; preds = %32, %15
  %17 = load ptr, ptr %2, align 8, !tbaa !488
  %18 = getelementptr inbounds nuw %struct.PutBitContext, ptr %17, i32 0, i32 1
  %19 = load i32, ptr %18, align 4, !tbaa !494
  %20 = icmp slt i32 %19, 32
  br i1 %20, label %21, label %50

21:                                               ; preds = %16
  br label %22

22:                                               ; preds = %21
  %23 = load ptr, ptr %2, align 8, !tbaa !488
  %24 = getelementptr inbounds nuw %struct.PutBitContext, ptr %23, i32 0, i32 3
  %25 = load ptr, ptr %24, align 8, !tbaa !493
  %26 = load ptr, ptr %2, align 8, !tbaa !488
  %27 = getelementptr inbounds nuw %struct.PutBitContext, ptr %26, i32 0, i32 4
  %28 = load ptr, ptr %27, align 8, !tbaa !492
  %29 = icmp ult ptr %25, %28
  br i1 %29, label %31, label %30

30:                                               ; preds = %22
  call void (ptr, i32, ptr, ...) @av_log(ptr noundef null, i32 noundef 0, ptr noundef @.str.6, ptr noundef @.str.343, ptr noundef @.str.344, i32 noundef 150)
  call void @abort() #16
  unreachable

31:                                               ; preds = %22
  br label %32

32:                                               ; preds = %31
  %33 = load ptr, ptr %2, align 8, !tbaa !488
  %34 = getelementptr inbounds nuw %struct.PutBitContext, ptr %33, i32 0, i32 0
  %35 = load i32, ptr %34, align 8, !tbaa !495
  %36 = lshr i32 %35, 24
  %37 = trunc i32 %36 to i8
  %38 = load ptr, ptr %2, align 8, !tbaa !488
  %39 = getelementptr inbounds nuw %struct.PutBitContext, ptr %38, i32 0, i32 3
  %40 = load ptr, ptr %39, align 8, !tbaa !493
  %41 = getelementptr inbounds nuw i8, ptr %40, i32 1
  store ptr %41, ptr %39, align 8, !tbaa !493
  store i8 %37, ptr %40, align 1, !tbaa !85
  %42 = load ptr, ptr %2, align 8, !tbaa !488
  %43 = getelementptr inbounds nuw %struct.PutBitContext, ptr %42, i32 0, i32 0
  %44 = load i32, ptr %43, align 8, !tbaa !495
  %45 = shl i32 %44, 8
  store i32 %45, ptr %43, align 8, !tbaa !495
  %46 = load ptr, ptr %2, align 8, !tbaa !488
  %47 = getelementptr inbounds nuw %struct.PutBitContext, ptr %46, i32 0, i32 1
  %48 = load i32, ptr %47, align 4, !tbaa !494
  %49 = add nsw i32 %48, 8
  store i32 %49, ptr %47, align 4, !tbaa !494
  br label %16, !llvm.loop !496

50:                                               ; preds = %16
  %51 = load ptr, ptr %2, align 8, !tbaa !488
  %52 = getelementptr inbounds nuw %struct.PutBitContext, ptr %51, i32 0, i32 1
  store i32 32, ptr %52, align 4, !tbaa !494
  %53 = load ptr, ptr %2, align 8, !tbaa !488
  %54 = getelementptr inbounds nuw %struct.PutBitContext, ptr %53, i32 0, i32 0
  store i32 0, ptr %54, align 8, !tbaa !495
  ret void
}

; Function Attrs: inlinehint nounwind uwtable
define internal void @put_bits(ptr noundef %0, i32 noundef %1, i32 noundef %2) #8 {
  %4 = alloca ptr, align 8
  %5 = alloca i32, align 4
  %6 = alloca i32, align 4
  store ptr %0, ptr %4, align 8, !tbaa !488
  store i32 %1, ptr %5, align 4, !tbaa !32
  store i32 %2, ptr %6, align 4, !tbaa !32
  %7 = load ptr, ptr %4, align 8, !tbaa !488
  %8 = load i32, ptr %5, align 4, !tbaa !32
  %9 = load i32, ptr %6, align 4, !tbaa !32
  call void @put_bits_no_assert(ptr noundef %7, i32 noundef %8, i32 noundef %9)
  ret void
}

; Function Attrs: inlinehint nounwind uwtable
define internal void @init_put_bits(ptr noundef %0, ptr noundef %1, i32 noundef %2) #8 {
  %4 = alloca ptr, align 8
  %5 = alloca ptr, align 8
  %6 = alloca i32, align 4
  store ptr %0, ptr %4, align 8, !tbaa !488
  store ptr %1, ptr %5, align 8, !tbaa !38
  store i32 %2, ptr %6, align 4, !tbaa !32
  %7 = load i32, ptr %6, align 4, !tbaa !32
  %8 = icmp slt i32 %7, 0
  br i1 %8, label %9, label %10

9:                                                ; preds = %3
  store i32 0, ptr %6, align 4, !tbaa !32
  store ptr null, ptr %5, align 8, !tbaa !38
  br label %10

10:                                               ; preds = %9, %3
  %11 = load ptr, ptr %5, align 8, !tbaa !38
  %12 = load ptr, ptr %4, align 8, !tbaa !488
  %13 = getelementptr inbounds nuw %struct.PutBitContext, ptr %12, i32 0, i32 2
  store ptr %11, ptr %13, align 8, !tbaa !490
  %14 = load ptr, ptr %4, align 8, !tbaa !488
  %15 = getelementptr inbounds nuw %struct.PutBitContext, ptr %14, i32 0, i32 2
  %16 = load ptr, ptr %15, align 8, !tbaa !490
  %17 = load i32, ptr %6, align 4, !tbaa !32
  %18 = sext i32 %17 to i64
  %19 = getelementptr inbounds i8, ptr %16, i64 %18
  %20 = load ptr, ptr %4, align 8, !tbaa !488
  %21 = getelementptr inbounds nuw %struct.PutBitContext, ptr %20, i32 0, i32 4
  store ptr %19, ptr %21, align 8, !tbaa !492
  %22 = load ptr, ptr %4, align 8, !tbaa !488
  %23 = getelementptr inbounds nuw %struct.PutBitContext, ptr %22, i32 0, i32 2
  %24 = load ptr, ptr %23, align 8, !tbaa !490
  %25 = load ptr, ptr %4, align 8, !tbaa !488
  %26 = getelementptr inbounds nuw %struct.PutBitContext, ptr %25, i32 0, i32 3
  store ptr %24, ptr %26, align 8, !tbaa !493
  %27 = load ptr, ptr %4, align 8, !tbaa !488
  %28 = getelementptr inbounds nuw %struct.PutBitContext, ptr %27, i32 0, i32 1
  store i32 32, ptr %28, align 4, !tbaa !494
  %29 = load ptr, ptr %4, align 8, !tbaa !488
  %30 = getelementptr inbounds nuw %struct.PutBitContext, ptr %29, i32 0, i32 0
  store i32 0, ptr %30, align 8, !tbaa !495
  ret void
}

; Function Attrs: alwaysinline nounwind uwtable
define internal void @ffio_wfourcc(ptr noundef %0, ptr noundef %1) #6 {
  %3 = alloca ptr, align 8
  %4 = alloca ptr, align 8
  store ptr %0, ptr %3, align 8, !tbaa !31
  store ptr %1, ptr %4, align 8, !tbaa !38
  %5 = load ptr, ptr %3, align 8, !tbaa !31
  %6 = load ptr, ptr %4, align 8, !tbaa !38
  %7 = getelementptr inbounds i8, ptr %6, i64 0
  %8 = load i8, ptr %7, align 1, !tbaa !85
  %9 = zext i8 %8 to i32
  %10 = load ptr, ptr %4, align 8, !tbaa !38
  %11 = getelementptr inbounds i8, ptr %10, i64 1
  %12 = load i8, ptr %11, align 1, !tbaa !85
  %13 = zext i8 %12 to i32
  %14 = shl i32 %13, 8
  %15 = or i32 %9, %14
  %16 = load ptr, ptr %4, align 8, !tbaa !38
  %17 = getelementptr inbounds i8, ptr %16, i64 2
  %18 = load i8, ptr %17, align 1, !tbaa !85
  %19 = zext i8 %18 to i32
  %20 = shl i32 %19, 16
  %21 = or i32 %15, %20
  %22 = load ptr, ptr %4, align 8, !tbaa !38
  %23 = getelementptr inbounds i8, ptr %22, i64 3
  %24 = load i8, ptr %23, align 1, !tbaa !85
  %25 = zext i8 %24 to i32
  %26 = shl i32 %25, 24
  %27 = or i32 %21, %26
  call void @avio_wl32(ptr noundef %5, i32 noundef %27)
  ret void
}

; Function Attrs: nounwind uwtable
define internal i32 @mov_write_ac3_tag(ptr noundef %0, ptr noundef %1, ptr noundef %2) #0 {
  %4 = alloca i32, align 4
  %5 = alloca ptr, align 8
  %6 = alloca ptr, align 8
  %7 = alloca ptr, align 8
  %8 = alloca ptr, align 8
  %9 = alloca %struct.PutBitContext, align 8
  %10 = alloca [3 x i8], align 1
  %11 = alloca i32, align 4
  store ptr %0, ptr %5, align 8, !tbaa !4
  store ptr %1, ptr %6, align 8, !tbaa !31
  store ptr %2, ptr %7, align 8, !tbaa !47
  call void @llvm.lifetime.start.p0(i64 8, ptr %8) #14
  %12 = load ptr, ptr %7, align 8, !tbaa !47
  %13 = getelementptr inbounds nuw %struct.MOVTrack, ptr %12, i32 0, i32 54
  %14 = load ptr, ptr %13, align 8, !tbaa !141
  store ptr %14, ptr %8, align 8, !tbaa !144
  call void @llvm.lifetime.start.p0(i64 32, ptr %9) #14
  call void @llvm.lifetime.start.p0(i64 3, ptr %10) #14
  %15 = load ptr, ptr %8, align 8, !tbaa !144
  %16 = icmp ne ptr %15, null
  br i1 %16, label %17, label %22

17:                                               ; preds = %3
  %18 = load ptr, ptr %8, align 8, !tbaa !144
  %19 = getelementptr inbounds nuw %struct.eac3_info, ptr %18, i32 0, i32 1
  %20 = load i8, ptr %19, align 8, !tbaa !153
  %21 = icmp ne i8 %20, 0
  br i1 %21, label %24, label %22

22:                                               ; preds = %17, %3
  %23 = load ptr, ptr %5, align 8, !tbaa !4
  call void (ptr, i32, ptr, ...) @av_log(ptr noundef %23, i32 noundef 16, ptr noundef @.str.408)
  store i32 -22, ptr %4, align 4
  store i32 1, ptr %11, align 4
  br label %92

24:                                               ; preds = %17
  %25 = load ptr, ptr %8, align 8, !tbaa !144
  %26 = getelementptr inbounds nuw %struct.eac3_info, ptr %25, i32 0, i32 6
  %27 = getelementptr inbounds [1 x %struct.anon.0], ptr %26, i64 0, i64 0
  %28 = getelementptr inbounds nuw %struct.anon.0, ptr %27, i32 0, i32 1
  %29 = load i8, ptr %28, align 1, !tbaa !158
  %30 = zext i8 %29 to i32
  %31 = icmp sgt i32 %30, 8
  br i1 %31, label %32, label %40

32:                                               ; preds = %24
  %33 = load ptr, ptr %5, align 8, !tbaa !4
  %34 = load ptr, ptr %8, align 8, !tbaa !144
  %35 = getelementptr inbounds nuw %struct.eac3_info, ptr %34, i32 0, i32 6
  %36 = getelementptr inbounds [1 x %struct.anon.0], ptr %35, i64 0, i64 0
  %37 = getelementptr inbounds nuw %struct.anon.0, ptr %36, i32 0, i32 1
  %38 = load i8, ptr %37, align 1, !tbaa !158
  %39 = zext i8 %38 to i32
  call void (ptr, i32, ptr, ...) @av_log(ptr noundef %33, i32 noundef 16, ptr noundef @.str.409, i32 noundef %39)
  store i32 -22, ptr %4, align 4
  store i32 1, ptr %11, align 4
  br label %92

40:                                               ; preds = %24
  %41 = load ptr, ptr %8, align 8, !tbaa !144
  %42 = getelementptr inbounds nuw %struct.eac3_info, ptr %41, i32 0, i32 4
  %43 = load i8, ptr %42, align 4, !tbaa !142
  %44 = sext i8 %43 to i32
  %45 = icmp slt i32 %44, 0
  br i1 %45, label %46, label %52

46:                                               ; preds = %40
  %47 = load ptr, ptr %5, align 8, !tbaa !4
  %48 = load ptr, ptr %8, align 8, !tbaa !144
  %49 = getelementptr inbounds nuw %struct.eac3_info, ptr %48, i32 0, i32 3
  %50 = load i16, ptr %49, align 2, !tbaa !148
  %51 = zext i16 %50 to i32
  call void (ptr, i32, ptr, ...) @av_log(ptr noundef %47, i32 noundef 16, ptr noundef @.str.410, i32 noundef %51)
  store i32 -22, ptr %4, align 4
  store i32 1, ptr %11, align 4
  br label %92

52:                                               ; preds = %40
  %53 = load ptr, ptr %6, align 8, !tbaa !31
  call void @avio_wb32(ptr noundef %53, i32 noundef 11)
  %54 = load ptr, ptr %6, align 8, !tbaa !31
  call void @ffio_wfourcc(ptr noundef %54, ptr noundef @.str.411)
  %55 = getelementptr inbounds [3 x i8], ptr %10, i64 0, i64 0
  call void @init_put_bits(ptr noundef %9, ptr noundef %55, i32 noundef 3)
  %56 = load ptr, ptr %8, align 8, !tbaa !144
  %57 = getelementptr inbounds nuw %struct.eac3_info, ptr %56, i32 0, i32 6
  %58 = getelementptr inbounds [1 x %struct.anon.0], ptr %57, i64 0, i64 0
  %59 = getelementptr inbounds nuw %struct.anon.0, ptr %58, i32 0, i32 0
  %60 = load i8, ptr %59, align 2, !tbaa !161
  %61 = zext i8 %60 to i32
  call void @put_bits(ptr noundef %9, i32 noundef 2, i32 noundef %61)
  %62 = load ptr, ptr %8, align 8, !tbaa !144
  %63 = getelementptr inbounds nuw %struct.eac3_info, ptr %62, i32 0, i32 6
  %64 = getelementptr inbounds [1 x %struct.anon.0], ptr %63, i64 0, i64 0
  %65 = getelementptr inbounds nuw %struct.anon.0, ptr %64, i32 0, i32 1
  %66 = load i8, ptr %65, align 1, !tbaa !158
  %67 = zext i8 %66 to i32
  call void @put_bits(ptr noundef %9, i32 noundef 5, i32 noundef %67)
  %68 = load ptr, ptr %8, align 8, !tbaa !144
  %69 = getelementptr inbounds nuw %struct.eac3_info, ptr %68, i32 0, i32 6
  %70 = getelementptr inbounds [1 x %struct.anon.0], ptr %69, i64 0, i64 0
  %71 = getelementptr inbounds nuw %struct.anon.0, ptr %70, i32 0, i32 2
  %72 = load i8, ptr %71, align 2, !tbaa !163
  %73 = zext i8 %72 to i32
  call void @put_bits(ptr noundef %9, i32 noundef 3, i32 noundef %73)
  %74 = load ptr, ptr %8, align 8, !tbaa !144
  %75 = getelementptr inbounds nuw %struct.eac3_info, ptr %74, i32 0, i32 6
  %76 = getelementptr inbounds [1 x %struct.anon.0], ptr %75, i64 0, i64 0
  %77 = getelementptr inbounds nuw %struct.anon.0, ptr %76, i32 0, i32 3
  %78 = load i8, ptr %77, align 1, !tbaa !165
  %79 = zext i8 %78 to i32
  call void @put_bits(ptr noundef %9, i32 noundef 3, i32 noundef %79)
  %80 = load ptr, ptr %8, align 8, !tbaa !144
  %81 = getelementptr inbounds nuw %struct.eac3_info, ptr %80, i32 0, i32 6
  %82 = getelementptr inbounds [1 x %struct.anon.0], ptr %81, i64 0, i64 0
  %83 = getelementptr inbounds nuw %struct.anon.0, ptr %82, i32 0, i32 4
  %84 = load i8, ptr %83, align 2, !tbaa !167
  %85 = zext i8 %84 to i32
  call void @put_bits(ptr noundef %9, i32 noundef 1, i32 noundef %85)
  %86 = load ptr, ptr %8, align 8, !tbaa !144
  %87 = getelementptr inbounds nuw %struct.eac3_info, ptr %86, i32 0, i32 4
  %88 = load i8, ptr %87, align 4, !tbaa !142
  %89 = sext i8 %88 to i32
  call void @put_bits(ptr noundef %9, i32 noundef 5, i32 noundef %89)
  call void @put_bits(ptr noundef %9, i32 noundef 5, i32 noundef 0)
  call void @flush_put_bits(ptr noundef %9)
  %90 = load ptr, ptr %6, align 8, !tbaa !31
  %91 = getelementptr inbounds [3 x i8], ptr %10, i64 0, i64 0
  call void @avio_write(ptr noundef %90, ptr noundef %91, i32 noundef 3)
  store i32 11, ptr %4, align 4
  store i32 1, ptr %11, align 4
  br label %92

92:                                               ; preds = %52, %46, %32, %22
  call void @llvm.lifetime.end.p0(i64 3, ptr %10) #14
  call void @llvm.lifetime.end.p0(i64 32, ptr %9) #14
  call void @llvm.lifetime.end.p0(i64 8, ptr %8) #14
  %93 = load i32, ptr %4, align 4
  ret i32 %93
}