; Function Attrs: nounwind uwtable
define internal fastcc range(i32 -22, 12) i32 @mov_write_ac3_tag(ptr noundef %0, ptr noundef %1, ptr readonly captures(address_is_null) %.368.val) unnamed_addr #0 {
  %3 = alloca [3 x i8], align 1
  call void @llvm.lifetime.start.p0(i64 3, ptr nonnull %3) #16
  %.not = icmp eq ptr %.368.val, null
  br i1 %.not, label %7, label %4

4:                                                ; preds = %2
  %5 = getelementptr inbounds nuw i8, ptr %.368.val, i64 8
  %6 = load i8, ptr %5, align 8, !tbaa !117
  %.not21 = icmp eq i8 %6, 0
  br i1 %.not21, label %7, label %8

7:                                                ; preds = %4, %2
  tail call void (ptr, i32, ptr, ...) @av_log(ptr noundef %0, i32 noundef 16, ptr noundef nonnull @.str.408) #16
  br label %53

8:                                                ; preds = %4
  %9 = getelementptr inbounds nuw i8, ptr %.368.val, i64 14
  %10 = getelementptr inbounds nuw i8, ptr %.368.val, i64 15
  %11 = load i8, ptr %10, align 1, !tbaa !122
  %12 = icmp ugt i8 %11, 8
  br i1 %12, label %13, label %15

13:                                               ; preds = %8
  %14 = zext i8 %11 to i32
  tail call void (ptr, i32, ptr, ...) @av_log(ptr noundef %0, i32 noundef 16, ptr noundef nonnull @.str.409, i32 noundef %14) #16
  br label %53

15:                                               ; preds = %8
  %16 = getelementptr inbounds nuw i8, ptr %.368.val, i64 12
  %17 = load i8, ptr %16, align 4, !tbaa !108
  %18 = icmp slt i8 %17, 0
  br i1 %18, label %19, label %put_bits.exit25

19:                                               ; preds = %15
  %20 = getelementptr inbounds nuw i8, ptr %.368.val, i64 10
  %21 = load i16, ptr %20, align 2, !tbaa !112
  %22 = zext i16 %21 to i32
  tail call void (ptr, i32, ptr, ...) @av_log(ptr noundef %0, i32 noundef 16, ptr noundef nonnull @.str.410, i32 noundef %22) #16
  br label %53

put_bits.exit25:                                  ; preds = %15
  tail call void @avio_wb32(ptr noundef %1, i32 noundef 11) #16
  tail call void @avio_wl32(ptr noundef %1, i32 noundef 862151012) #16
  %23 = load i8, ptr %16, align 4, !tbaa !108
  %24 = sext i8 %23 to i32
  %25 = load i8, ptr %9, align 2, !tbaa !125
  %26 = zext i8 %25 to i32
  %27 = shl nuw nsw i32 %26, 8
  %28 = load i8, ptr %10, align 1, !tbaa !122
  %29 = zext i8 %28 to i32
  %30 = shl nuw nsw i32 %29, 3
  %31 = or i32 %30, %27
  %32 = getelementptr inbounds nuw i8, ptr %.368.val, i64 16
  %33 = load i8, ptr %32, align 2, !tbaa !127
  %34 = zext i8 %33 to i32
  %35 = or i32 %31, %34
  %36 = getelementptr inbounds nuw i8, ptr %.368.val, i64 17
  %37 = load i8, ptr %36, align 1, !tbaa !129
  %38 = zext i8 %37 to i32
  %39 = getelementptr inbounds nuw i8, ptr %.368.val, i64 18
  %40 = load i8, ptr %39, align 2, !tbaa !131
  %41 = zext i8 %40 to i32
  %42 = shl i32 %35, 22
  %43 = shl nuw nsw i32 %38, 19
  %44 = shl nuw nsw i32 %41, 18
  %45 = or i32 %43, %44
  %46 = or i32 %42, %45
  %47 = shl nsw i32 %24, 13
  %48 = or i32 %46, %47
  br label %49

49:                                               ; preds = %put_bits.exit25, %49
  %.sroa.43.14.idx = phi i64 [ 0, %put_bits.exit25 ], [ %.sroa.43.14.add, %49 ]
  %.sroa.0.0 = phi i32 [ %48, %put_bits.exit25 ], [ %52, %49 ]
  %.sroa.43.14.ptr = getelementptr inbounds nuw i8, ptr %3, i64 %.sroa.43.14.idx
  %50 = lshr i32 %.sroa.0.0, 24
  %51 = trunc nuw i32 %50 to i8
  %.sroa.43.14.add = add nuw nsw i64 %.sroa.43.14.idx, 1
  store i8 %51, ptr %.sroa.43.14.ptr, align 1, !tbaa !88
  %52 = shl i32 %.sroa.0.0, 8
  %exitcond.not = icmp eq i64 %.sroa.43.14.add, 3
  br i1 %exitcond.not, label %flush_put_bits.exit, label %49, !llvm.loop !476

flush_put_bits.exit:                              ; preds = %49
  call void @avio_write(ptr noundef %1, ptr noundef nonnull %3, i32 noundef 3) #16
  br label %53

53:                                               ; preds = %flush_put_bits.exit, %19, %13, %7
  %.0 = phi i32 [ -22, %13 ], [ -22, %19 ], [ 11, %flush_put_bits.exit ], [ -22, %7 ]
  call void @llvm.lifetime.end.p0(i64 3, ptr nonnull %3) #16
  ret i32 %.0
}